; Function Attrs: mustprogress uwtable
define void @_ZN3g2o15SparseOptimizer19computeActiveErrorsEv(ptr noundef nonnull align 8 dereferenceable(409) %0) local_unnamed_addr #3 align 2 personality ptr @__gxx_personality_v0 {
  %2 = getelementptr inbounds nuw i8, ptr %0, i64 168
  %3 = load ptr, ptr %2, align 8
  %4 = getelementptr inbounds i8, ptr %3, i64 136
  %5 = load i64, ptr %4, align 8
  %.not = icmp eq i64 %5, 0
  br i1 %.not, label %.loopexit, label %6

6:                                                ; preds = %1
  %7 = getelementptr inbounds i8, ptr %3, i64 120
  %8 = load ptr, ptr %7, align 8
  %9 = getelementptr inbounds i8, ptr %3, i64 104
  %.not1011 = icmp eq ptr %8, %9
  br i1 %.not1011, label %.loopexit, label %.lr.ph

.lr.ph:                                           ; preds = %6, %.lr.ph
  %.sroa.07.012 = phi ptr [ %16, %.lr.ph ], [ %8, %6 ]
  %10 = getelementptr inbounds nuw i8, ptr %.sroa.07.012, i64 32
  %11 = load ptr, ptr %10, align 8
  %12 = load ptr, ptr %11, align 8
  %13 = getelementptr inbounds i8, ptr %12, i64 16
  %14 = load ptr, ptr %13, align 8
  %15 = tail call noundef ptr %14(ptr noundef nonnull align 8 dereferenceable(8) %11, ptr noundef nonnull %0, ptr noundef null)
  %16 = tail call noundef ptr @_ZSt18_Rb_tree_incrementPKSt18_Rb_tree_node_base(ptr noundef %.sroa.07.012) #26
  %.not10 = icmp eq ptr %16, %9
  br i1 %.not10, label %.loopexit, label %.lr.ph, !llvm.loop !6

.loopexit:                                        ; preds = %.lr.ph, %6, %1
  %17 = getelementptr inbounds nuw i8, ptr %0, i64 352
  %18 = getelementptr inbounds i8, ptr %0, i64 360
  %19 = load ptr, ptr %18, align 8
  %20 = load ptr, ptr %17, align 8
  %21 = ptrtoint ptr %19 to i64
  %22 = ptrtoint ptr %20 to i64
  %23 = sub i64 %21, %22
  %24 = lshr exact i64 %23, 3
  %25 = trunc i64 %24 to i32
  %26 = icmp sgt i32 %25, 0
  br i1 %26, label %.lr.ph14, label %._crit_edge

.lr.ph14:                                         ; preds = %.loopexit, %.lr.ph14
  %indvars.iv = phi i64 [ %indvars.iv.next, %.lr.ph14 ], [ 0, %.loopexit ]
  %27 = phi ptr [ %34, %.lr.ph14 ], [ %20, %.loopexit ]
  %28 = getelementptr inbounds ptr, ptr %27, i64 %indvars.iv
  %29 = load ptr, ptr %28, align 8
  %30 = load ptr, ptr %29, align 8
  %31 = getelementptr inbounds i8, ptr %30, i64 40
  %32 = load ptr, ptr %31, align 8
  tail call void %32(ptr noundef nonnull align 8 dereferenceable(176) %29)
  %indvars.iv.next = add nuw nsw i64 %indvars.iv, 1
  %33 = load ptr, ptr %18, align 8
  %34 = load ptr, ptr %17, align 8
  %35 = ptrtoint ptr %33 to i64
  %36 = ptrtoint ptr %34 to i64
  %37 = sub i64 %35, %36
  %sext = shl i64 %37, 29
  %38 = ashr i64 %sext, 32
  %39 = icmp slt i64 %indvars.iv.next, %38
  br i1 %39, label %.lr.ph14, label %._crit_edge, !llvm.loop !7

._crit_edge:                                      ; preds = %.lr.ph14, %.loopexit
  ret void
}